target datalayout = "e-m:e-p270:32:32-p271:32:32-p272:64:64-i64:64-i128:128-f80:128-n8:16:32:64-S128"
target triple = "x86_64-pc-linux-gnu"

%struct.Cnf_Dat_t_ = type { ptr, i32, i32, i32, ptr, ptr, ptr, ptr, ptr, ptr }

; Function Attrs: inlinehint nounwind uwtable
define internal i32 @Abc_Lit2Var(i32 noundef %0) #4 {
  %2 = alloca i32, align 4
  store i32 %0, ptr %2, align 4, !tbaa !3
  %3 = load i32, ptr %2, align 4, !tbaa !3
  %4 = ashr i32 %3, 1
  ret i32 %4
}

; Function Attrs: nounwind uwtable
define i32 @Cnf_DataBestVar(ptr noundef %0, ptr noundef %1) #0 {
  %3 = alloca ptr, align 8
  %4 = alloca ptr, align 8
  %5 = alloca ptr, align 8
  %6 = alloca i32, align 4
  %7 = alloca ptr, align 8
  %8 = alloca i32, align 4
  %9 = alloca i32, align 4
  store ptr %0, ptr %3, align 8, !tbaa !87
  store ptr %1, ptr %4, align 8, !tbaa !23
  call void @llvm.lifetime.start.p0(i64 8, ptr %5) #12
  %10 = load ptr, ptr %3, align 8, !tbaa !87
  %11 = getelementptr inbounds nuw %struct.Cnf_Dat_t_, ptr %10, i32 0, i32 1
  %12 = load i32, ptr %11, align 8, !tbaa !112
  %13 = sext i32 %12 to i64
  %14 = call noalias ptr @calloc(i64 noundef %13, i64 noundef 4) #15
  store ptr %14, ptr %5, align 8, !tbaa !23
  call void @llvm.lifetime.start.p0(i64 4, ptr %6) #12
  call void @llvm.lifetime.start.p0(i64 8, ptr %7) #12
  call void @llvm.lifetime.start.p0(i64 4, ptr %8) #12
  store i32 -1, ptr %8, align 4, !tbaa !3
  call void @llvm.lifetime.start.p0(i64 4, ptr %9) #12
  store i32 -1, ptr %9, align 4, !tbaa !3
  store i32 0, ptr %6, align 4, !tbaa !3
  br label %15

15:                                               ; preds = %53, %2
  %16 = load i32, ptr %6, align 4, !tbaa !3
  %17 = load ptr, ptr %3, align 8, !tbaa !87
  %18 = getelementptr inbounds nuw %struct.Cnf_Dat_t_, ptr %17, i32 0, i32 3
  %19 = load i32, ptr %18, align 8, !tbaa !99
  %20 = icmp slt i32 %16, %19
  br i1 %20, label %21, label %56

21:                                               ; preds = %15
  %22 = load ptr, ptr %3, align 8, !tbaa !87
  %23 = getelementptr inbounds nuw %struct.Cnf_Dat_t_, ptr %22, i32 0, i32 4
  %24 = load ptr, ptr %23, align 8, !tbaa !102
  %25 = load i32, ptr %6, align 4, !tbaa !3
  %26 = sext i32 %25 to i64
  %27 = getelementptr inbounds ptr, ptr %24, i64 %26
  %28 = load ptr, ptr %27, align 8, !tbaa !23
  store ptr %28, ptr %7, align 8, !tbaa !23
  br label %29

29:                                               ; preds = %49, %21
  %30 = load ptr, ptr %7, align 8, !tbaa !23
  %31 = load ptr, ptr %3, align 8, !tbaa !87
  %32 = getelementptr inbounds nuw %struct.Cnf_Dat_t_, ptr %31, i32 0, i32 4
  %33 = load ptr, ptr %32, align 8, !tbaa !102
  %34 = load i32, ptr %6, align 4, !tbaa !3
  %35 = add nsw i32 %34, 1
  %36 = sext i32 %35 to i64
  %37 = getelementptr inbounds ptr, ptr %33, i64 %36
  %38 = load ptr, ptr %37, align 8, !tbaa !23
  %39 = icmp ult ptr %30, %38
  br i1 %39, label %40, label %52

40:                                               ; preds = %29
  %41 = load ptr, ptr %5, align 8, !tbaa !23
  %42 = load ptr, ptr %7, align 8, !tbaa !23
  %43 = load i32, ptr %42, align 4, !tbaa !3
  %44 = call i32 @Abc_Lit2Var(i32 noundef %43)
  %45 = sext i32 %44 to i64
  %46 = getelementptr inbounds i32, ptr %41, i64 %45
  %47 = load i32, ptr %46, align 4, !tbaa !3
  %48 = add nsw i32 %47, 1
  store i32 %48, ptr %46, align 4, !tbaa !3
  br label %49

49:                                               ; preds = %40
  %50 = load ptr, ptr %7, align 8, !tbaa !23
  %51 = getelementptr inbounds nuw i32, ptr %50, i32 1
  store ptr %51, ptr %7, align 8, !tbaa !23
  br label %29, !llvm.loop !134

52:                                               ; preds = %29
  br label %53

53:                                               ; preds = %52
  %54 = load i32, ptr %6, align 4, !tbaa !3
  %55 = add nsw i32 %54, 1
  store i32 %55, ptr %6, align 4, !tbaa !3
  br label %15, !llvm.loop !135

56:                                               ; preds = %15
  store i32 0, ptr %6, align 4, !tbaa !3
  br label %57

57:                                               ; preds = %89, %56
  %58 = load i32, ptr %6, align 4, !tbaa !3
  %59 = load ptr, ptr %3, align 8, !tbaa !87
  %60 = getelementptr inbounds nuw %struct.Cnf_Dat_t_, ptr %59, i32 0, i32 1
  %61 = load i32, ptr %60, align 8, !tbaa !112
  %62 = icmp slt i32 %58, %61
  br i1 %62, label %63, label %92

63:                                               ; preds = %57
  %64 = load ptr, ptr %4, align 8, !tbaa !23
  %65 = icmp ne ptr %64, null
  br i1 %65, label %66, label %73

66:                                               ; preds = %63
  %67 = load ptr, ptr %4, align 8, !tbaa !23
  %68 = load i32, ptr %6, align 4, !tbaa !3
  %69 = sext i32 %68 to i64
  %70 = getelementptr inbounds i32, ptr %67, i64 %69
  %71 = load i32, ptr %70, align 4, !tbaa !3
  %72 = icmp ne i32 %71, 0
  br i1 %72, label %88, label %73

73:                                               ; preds = %66, %63
  %74 = load i32, ptr %8, align 4, !tbaa !3
  %75 = load ptr, ptr %5, align 8, !tbaa !23
  %76 = load i32, ptr %6, align 4, !tbaa !3
  %77 = sext i32 %76 to i64
  %78 = getelementptr inbounds i32, ptr %75, i64 %77
  %79 = load i32, ptr %78, align 4, !tbaa !3
  %80 = icmp slt i32 %74, %79
  br i1 %80, label %81, label %88

81:                                               ; preds = %73
  %82 = load ptr, ptr %5, align 8, !tbaa !23
  %83 = load i32, ptr %6, align 4, !tbaa !3
  %84 = sext i32 %83 to i64
  %85 = getelementptr inbounds i32, ptr %82, i64 %84
  %86 = load i32, ptr %85, align 4, !tbaa !3
  store i32 %86, ptr %8, align 4, !tbaa !3
  %87 = load i32, ptr %6, align 4, !tbaa !3
  store i32 %87, ptr %9, align 4, !tbaa !3
  br label %88

88:                                               ; preds = %81, %73, %66
  br label %89

89:                                               ; preds = %88
  %90 = load i32, ptr %6, align 4, !tbaa !3
  %91 = add nsw i32 %90, 1
  store i32 %91, ptr %6, align 4, !tbaa !3
  br label %57, !llvm.loop !136

92:                                               ; preds = %57
  %93 = load ptr, ptr %5, align 8, !tbaa !23
  %94 = icmp ne ptr %93, null
  br i1 %94, label %95, label %97

95:                                               ; preds = %92
  %96 = load ptr, ptr %5, align 8, !tbaa !23
  call void @free(ptr noundef %96) #12
  store ptr null, ptr %5, align 8, !tbaa !23
  br label %98

97:                                               ; preds = %92
  br label %98

98:                                               ; preds = %97, %95
  %99 = load i32, ptr %9, align 4, !tbaa !3
  call void @llvm.lifetime.end.p0(i64 4, ptr %9) #12
  call void @llvm.lifetime.end.p0(i64 4, ptr %8) #12
  call void @llvm.lifetime.end.p0(i64 8, ptr %7) #12
  call void @llvm.lifetime.end.p0(i64 4, ptr %6) #12
  call void @llvm.lifetime.end.p0(i64 8, ptr %5) #12
  ret i32 %99
}