; Function Attrs: nounwind memory(readwrite, argmem: read) uwtable
define i32 @Cnf_DataBestVar(ptr noundef readonly captures(none) %0, ptr noundef readonly %1) local_unnamed_addr #8 {
  %3 = getelementptr inbounds nuw i8, ptr %0, i64 8
  %4 = load i32, ptr %3, align 8, !tbaa !95
  %5 = sext i32 %4 to i64
  %6 = tail call noalias ptr @calloc(i64 noundef %5, i64 noundef 4) #26
  %7 = getelementptr inbounds nuw i8, ptr %0, i64 16
  %8 = load i32, ptr %7, align 8, !tbaa !81
  %9 = icmp sgt i32 %8, 0
  br i1 %9, label %.lr.ph39, label %.preheader

.lr.ph39:                                         ; preds = %2
  %10 = getelementptr inbounds nuw i8, ptr %0, i64 24
  %11 = load ptr, ptr %10, align 8, !tbaa !84
  %wide.trip.count = zext nneg i32 %8 to i64
  %.pre = load ptr, ptr %11, align 8, !tbaa !85
  br label %17

.loopexit:                                        ; preds = %.lr.ph, %17
  %exitcond.not = icmp eq i64 %indvars.iv.next, %wide.trip.count
  br i1 %exitcond.not, label %.preheader, label %17, !llvm.loop !118

.preheader:                                       ; preds = %.loopexit, %2
  %12 = icmp sgt i32 %4, 0
  br i1 %12, label %.lr.ph43, label %._crit_edge

.lr.ph43:                                         ; preds = %.preheader
  %.not34 = icmp eq ptr %1, null
  %wide.trip.count54 = zext nneg i32 %4 to i64
  br i1 %.not34, label %.lr.ph43.split.us, label %.lr.ph43.split

.lr.ph43.split.us:                                ; preds = %.lr.ph43, %.lr.ph43.split.us
  %indvars.iv51 = phi i64 [ %indvars.iv.next52, %.lr.ph43.split.us ], [ 0, %.lr.ph43 ]
  %.042.us = phi i32 [ %spec.select36.us, %.lr.ph43.split.us ], [ -1, %.lr.ph43 ]
  %.02641.us = phi i32 [ %spec.select.us, %.lr.ph43.split.us ], [ -1, %.lr.ph43 ]
  %13 = getelementptr inbounds nuw i32, ptr %6, i64 %indvars.iv51
  %14 = load i32, ptr %13, align 4, !tbaa !14
  %15 = icmp slt i32 %.02641.us, %14
  %spec.select.us = tail call i32 @llvm.smax.i32(i32 %.02641.us, i32 %14)
  %16 = trunc nuw nsw i64 %indvars.iv51 to i32
  %spec.select36.us = select i1 %15, i32 %16, i32 %.042.us
  %indvars.iv.next52 = add nuw nsw i64 %indvars.iv51, 1
  %exitcond55.not = icmp eq i64 %indvars.iv.next52, %wide.trip.count54
  br i1 %exitcond55.not, label %._crit_edge.thread, label %.lr.ph43.split.us, !llvm.loop !119

17:                                               ; preds = %.lr.ph39, %.loopexit
  %18 = phi ptr [ %.pre, %.lr.ph39 ], [ %20, %.loopexit ]
  %indvars.iv = phi i64 [ 0, %.lr.ph39 ], [ %indvars.iv.next, %.loopexit ]
  %indvars.iv.next = add nuw nsw i64 %indvars.iv, 1
  %19 = getelementptr inbounds nuw ptr, ptr %11, i64 %indvars.iv.next
  %20 = load ptr, ptr %19, align 8, !tbaa !85
  %21 = icmp ult ptr %18, %20
  br i1 %21, label %.lr.ph, label %.loopexit

.lr.ph:                                           ; preds = %17, %.lr.ph
  %.02837 = phi ptr [ %28, %.lr.ph ], [ %18, %17 ]
  %22 = load i32, ptr %.02837, align 4, !tbaa !14
  %23 = ashr i32 %22, 1
  %24 = sext i32 %23 to i64
  %25 = getelementptr inbounds i32, ptr %6, i64 %24
  %26 = load i32, ptr %25, align 4, !tbaa !14
  %27 = add nsw i32 %26, 1
  store i32 %27, ptr %25, align 4, !tbaa !14
  %28 = getelementptr inbounds nuw i8, ptr %.02837, i64 4
  %29 = icmp ult ptr %28, %20
  br i1 %29, label %.lr.ph, label %.loopexit, !llvm.loop !120

.lr.ph43.split:                                   ; preds = %.lr.ph43, %37
  %indvars.iv46 = phi i64 [ %indvars.iv.next47, %37 ], [ 0, %.lr.ph43 ]
  %.042 = phi i32 [ %.1, %37 ], [ -1, %.lr.ph43 ]
  %.02641 = phi i32 [ %.127, %37 ], [ -1, %.lr.ph43 ]
  %30 = getelementptr inbounds nuw i32, ptr %1, i64 %indvars.iv46
  %31 = load i32, ptr %30, align 4, !tbaa !14
  %.not35 = icmp eq i32 %31, 0
  br i1 %.not35, label %32, label %37

32:                                               ; preds = %.lr.ph43.split
  %33 = getelementptr inbounds nuw i32, ptr %6, i64 %indvars.iv46
  %34 = load i32, ptr %33, align 4, !tbaa !14
  %35 = icmp slt i32 %.02641, %34
  %spec.select = tail call i32 @llvm.smax.i32(i32 %.02641, i32 %34)
  %36 = trunc nuw nsw i64 %indvars.iv46 to i32
  %spec.select36 = select i1 %35, i32 %36, i32 %.042
  br label %37

37:                                               ; preds = %32, %.lr.ph43.split
  %.127 = phi i32 [ %.02641, %.lr.ph43.split ], [ %spec.select, %32 ]
  %.1 = phi i32 [ %.042, %.lr.ph43.split ], [ %spec.select36, %32 ]
  %indvars.iv.next47 = add nuw nsw i64 %indvars.iv46, 1
  %exitcond50.not = icmp eq i64 %indvars.iv.next47, %wide.trip.count54
  br i1 %exitcond50.not, label %._crit_edge, label %.lr.ph43.split, !llvm.loop !119

._crit_edge:                                      ; preds = %37, %.preheader
  %.0.lcssa = phi i32 [ -1, %.preheader ], [ %.1, %37 ]
  %.not = icmp eq ptr %6, null
  br i1 %.not, label %38, label %._crit_edge.thread

._crit_edge.thread:                               ; preds = %.lr.ph43.split.us, %._crit_edge
  %.0.lcssa58 = phi i32 [ %.0.lcssa, %._crit_edge ], [ %spec.select36.us, %.lr.ph43.split.us ]
  tail call void @free(ptr noundef nonnull %6) #22
  br label %38

38:                                               ; preds = %._crit_edge, %._crit_edge.thread
  %.0.lcssa59 = phi i32 [ %.0.lcssa, %._crit_edge ], [ %.0.lcssa58, %._crit_edge.thread ]
  ret i32 %.0.lcssa59
}